; ModuleID = '9/651.c'
source_filename = "9/651.c"
target datalayout = "e-m:e-p270:32:32-p271:32:32-p272:64:64-i64:64-f80:128-n8:16:32:64-S128"
target triple = "x86_64-pc-linux-gnu"

@.str = private unnamed_addr constant [3 x i8] c"%d\00", align 1
@.str.1 = private unnamed_addr constant [6 x i8] c"%s %d\00", align 1
@.str.2 = private unnamed_addr constant [4 x i8] c"%s\0A\00", align 1

; Function Attrs: noinline nounwind uwtable
define dso_local i32 @main() #0 {
  %1 = alloca i32, align 4
  %2 = alloca i32, align 4
  %3 = alloca i32, align 4
  %4 = alloca [100 x i32], align 16
  %5 = alloca i32, align 4
  %6 = alloca [100 x i32], align 16
  %7 = alloca i32, align 4
  %8 = alloca i32, align 4
  %9 = alloca i32, align 4
  %10 = alloca [100 x [100 x i8]], align 16
  %11 = alloca [100 x [100 x i8]], align 16
  %12 = alloca [100 x i8], align 16
  store i32 0, i32* %1, align 4
  %13 = call i32 (i8*, ...) @__isoc99_scanf(i8* getelementptr inbounds ([3 x i8], [3 x i8]* @.str, i64 0, i64 0), i32* %2)
  store i32 0, i32* %3, align 4
  br label %14

14:                                               ; preds = %27, %0
  %15 = load i32, i32* %3, align 4
  %16 = load i32, i32* %2, align 4
  %17 = icmp slt i32 %15, %16
  br i1 %17, label %18, label %30

18:                                               ; preds = %14
  %19 = load i32, i32* %3, align 4
  %20 = sext i32 %19 to i64
  %21 = getelementptr inbounds [100 x [100 x i8]], [100 x [100 x i8]]* %10, i64 0, i64 %20
  %22 = getelementptr inbounds [100 x i8], [100 x i8]* %21, i64 0, i64 0
  %23 = load i32, i32* %3, align 4
  %24 = sext i32 %23 to i64
  %25 = getelementptr inbounds [100 x i32], [100 x i32]* %4, i64 0, i64 %24
  %26 = call i32 (i8*, ...) @__isoc99_scanf(i8* getelementptr inbounds ([6 x i8], [6 x i8]* @.str.1, i64 0, i64 0), i8* %22, i32* %25)
  br label %27

27:                                               ; preds = %18
  %28 = load i32, i32* %3, align 4
  %29 = add nsw i32 %28, 1
  store i32 %29, i32* %3, align 4
  br label %14

30:                                               ; preds = %14
  store i32 0, i32* %3, align 4
  store i32 0, i32* %7, align 4
  br label %31

31:                                               ; preds = %60, %30
  %32 = load i32, i32* %3, align 4
  %33 = load i32, i32* %2, align 4
  %34 = icmp slt i32 %32, %33
  br i1 %34, label %35, label %63

35:                                               ; preds = %31
  %36 = load i32, i32* %3, align 4
  %37 = sext i32 %36 to i64
  %38 = getelementptr inbounds [100 x i32], [100 x i32]* %4, i64 0, i64 %37
  %39 = load i32, i32* %38, align 4
  %40 = icmp sge i32 %39, 60
  br i1 %40, label %41, label %60

41:                                               ; preds = %35
  %42 = load i32, i32* %3, align 4
  %43 = sext i32 %42 to i64
  %44 = getelementptr inbounds [100 x i32], [100 x i32]* %4, i64 0, i64 %43
  %45 = load i32, i32* %44, align 4
  %46 = load i32, i32* %7, align 4
  %47 = sext i32 %46 to i64
  %48 = getelementptr inbounds [100 x i32], [100 x i32]* %6, i64 0, i64 %47
  store i32 %45, i32* %48, align 4
  %49 = load i32, i32* %7, align 4
  %50 = sext i32 %49 to i64
  %51 = getelementptr inbounds [100 x [100 x i8]], [100 x [100 x i8]]* %11, i64 0, i64 %50
  %52 = getelementptr inbounds [100 x i8], [100 x i8]* %51, i64 0, i64 0
  %53 = load i32, i32* %3, align 4
  %54 = sext i32 %53 to i64
  %55 = getelementptr inbounds [100 x [100 x i8]], [100 x [100 x i8]]* %10, i64 0, i64 %54
  %56 = getelementptr inbounds [100 x i8], [100 x i8]* %55, i64 0, i64 0
  %57 = call i8* @strcpy(i8* %52, i8* %56) #3
  %58 = load i32, i32* %7, align 4
  %59 = add nsw i32 %58, 1
  store i32 %59, i32* %7, align 4
  br label %60

60:                                               ; preds = %41, %35
  %61 = load i32, i32* %3, align 4
  %62 = add nsw i32 %61, 1
  store i32 %62, i32* %3, align 4
  br label %31

63:                                               ; preds = %31
  store i32 0, i32* %3, align 4
  br label %64

64:                                               ; preds = %134, %63
  %65 = load i32, i32* %3, align 4
  %66 = load i32, i32* %7, align 4
  %67 = sub nsw i32 %66, 1
  %68 = icmp sle i32 %65, %67
  br i1 %68, label %69, label %137

69:                                               ; preds = %64
  store i32 0, i32* %5, align 4
  br label %70

70:                                               ; preds = %130, %69
  %71 = load i32, i32* %5, align 4
  %72 = load i32, i32* %7, align 4
  %73 = load i32, i32* %3, align 4
  %74 = sub nsw i32 %72, %73
  %75 = sub nsw i32 %74, 1
  %76 = icmp slt i32 %71, %75
  br i1 %76, label %77, label %133

77:                                               ; preds = %70
  %78 = load i32, i32* %5, align 4
  %79 = sext i32 %78 to i64
  %80 = getelementptr inbounds [100 x i32], [100 x i32]* %6, i64 0, i64 %79
  %81 = load i32, i32* %80, align 4
  %82 = load i32, i32* %5, align 4
  %83 = add nsw i32 %82, 1
  %84 = sext i32 %83 to i64
  %85 = getelementptr inbounds [100 x i32], [100 x i32]* %6, i64 0, i64 %84
  %86 = load i32, i32* %85, align 4
  %87 = icmp slt i32 %81, %86
  br i1 %87, label %88, label %129

88:                                               ; preds = %77
  %89 = load i32, i32* %5, align 4
  %90 = sext i32 %89 to i64
  %91 = getelementptr inbounds [100 x i32], [100 x i32]* %6, i64 0, i64 %90
  %92 = load i32, i32* %91, align 4
  store i32 %92, i32* %8, align 4
  %93 = getelementptr inbounds [100 x i8], [100 x i8]* %12, i64 0, i64 0
  %94 = load i32, i32* %5, align 4
  %95 = sext i32 %94 to i64
  %96 = getelementptr inbounds [100 x [100 x i8]], [100 x [100 x i8]]* %11, i64 0, i64 %95
  %97 = getelementptr inbounds [100 x i8], [100 x i8]* %96, i64 0, i64 0
  %98 = call i8* @strcpy(i8* %93, i8* %97) #3
  %99 = load i32, i32* %5, align 4
  %100 = add nsw i32 %99, 1
  %101 = sext i32 %100 to i64
  %102 = getelementptr inbounds [100 x i32], [100 x i32]* %6, i64 0, i64 %101
  %103 = load i32, i32* %102, align 4
  %104 = load i32, i32* %5, align 4
  %105 = sext i32 %104 to i64
  %106 = getelementptr inbounds [100 x i32], [100 x i32]* %6, i64 0, i64 %105
  store i32 %103, i32* %106, align 4
  %107 = load i32, i32* %5, align 4
  %108 = sext i32 %107 to i64
  %109 = getelementptr inbounds [100 x [100 x i8]], [100 x [100 x i8]]* %11, i64 0, i64 %108
  %110 = getelementptr inbounds [100 x i8], [100 x i8]* %109, i64 0, i64 0
  %111 = load i32, i32* %5, align 4
  %112 = add nsw i32 %111, 1
  %113 = sext i32 %112 to i64
  %114 = getelementptr inbounds [100 x [100 x i8]], [100 x [100 x i8]]* %11, i64 0, i64 %113
  %115 = getelementptr inbounds [100 x i8], [100 x i8]* %114, i64 0, i64 0
  %116 = call i8* @strcpy(i8* %110, i8* %115) #3
  %117 = load i32, i32* %8, align 4
  %118 = load i32, i32* %5, align 4
  %119 = add nsw i32 %118, 1
  %120 = sext i32 %119 to i64
  %121 = getelementptr inbounds [100 x i32], [100 x i32]* %6, i64 0, i64 %120
  store i32 %117, i32* %121, align 4
  %122 = load i32, i32* %5, align 4
  %123 = add nsw i32 %122, 1
  %124 = sext i32 %123 to i64
  %125 = getelementptr inbounds [100 x [100 x i8]], [100 x [100 x i8]]* %11, i64 0, i64 %124
  %126 = getelementptr inbounds [100 x i8], [100 x i8]* %125, i64 0, i64 0
  %127 = getelementptr inbounds [100 x i8], [100 x i8]* %12, i64 0, i64 0
  %128 = call i8* @strcpy(i8* %126, i8* %127) #3
  br label %129

129:                                              ; preds = %88, %77
  br label %130

130:                                              ; preds = %129
  %131 = load i32, i32* %5, align 4
  %132 = add nsw i32 %131, 1
  store i32 %132, i32* %5, align 4
  br label %70

133:                                              ; preds = %70
  br label %134

134:                                              ; preds = %133
  %135 = load i32, i32* %3, align 4
  %136 = add nsw i32 %135, 1
  store i32 %136, i32* %3, align 4
  br label %64

137:                                              ; preds = %64
  store i32 0, i32* %3, align 4
  br label %138

138:                                              ; preds = %149, %137
  %139 = load i32, i32* %3, align 4
  %140 = load i32, i32* %7, align 4
  %141 = sub nsw i32 %140, 1
  %142 = icmp sle i32 %139, %141
  br i1 %142, label %143, label %152

143:                                              ; preds = %138
  %144 = load i32, i32* %3, align 4
  %145 = sext i32 %144 to i64
  %146 = getelementptr inbounds [100 x [100 x i8]], [100 x [100 x i8]]* %11, i64 0, i64 %145
  %147 = getelementptr inbounds [100 x i8], [100 x i8]* %146, i64 0, i64 0
  %148 = call i32 (i8*, ...) @printf(i8* getelementptr inbounds ([4 x i8], [4 x i8]* @.str.2, i64 0, i64 0), i8* %147)
  br label %149

149:                                              ; preds = %143
  %150 = load i32, i32* %3, align 4
  %151 = add nsw i32 %150, 1
  store i32 %151, i32* %3, align 4
  br label %138

152:                                              ; preds = %138
  store i32 0, i32* %3, align 4
  br label %153

153:                                              ; preds = %169, %152
  %154 = load i32, i32* %3, align 4
  %155 = load i32, i32* %2, align 4
  %156 = icmp slt i32 %154, %155
  br i1 %156, label %157, label %172

157:                                              ; preds = %153
  %158 = load i32, i32* %3, align 4
  %159 = sext i32 %158 to i64
  %160 = getelementptr inbounds [100 x i32], [100 x i32]* %4, i64 0, i64 %159
  %161 = load i32, i32* %160, align 4
  %162 = icmp slt i32 %161, 60
  br i1 %162, label %163, label %169

163:                                              ; preds = %157
  %164 = load i32, i32* %3, align 4
  %165 = sext i32 %164 to i64
  %166 = getelementptr inbounds [100 x [100 x i8]], [100 x [100 x i8]]* %10, i64 0, i64 %165
  %167 = getelementptr inbounds [100 x i8], [100 x i8]* %166, i64 0, i64 0
  %168 = call i32 (i8*, ...) @printf(i8* getelementptr inbounds ([4 x i8], [4 x i8]* @.str.2, i64 0, i64 0), i8* %167)
  br label %169

169:                                              ; preds = %163, %157
  %170 = load i32, i32* %3, align 4
  %171 = add nsw i32 %170, 1
  store i32 %171, i32* %3, align 4
  br label %153

172:                                              ; preds = %153
  %173 = call i32 @getchar()
  %174 = call i32 @getchar()
  %175 = load i32, i32* %1, align 4
  ret i32 %175
}

declare dso_local i32 @__isoc99_scanf(i8*, ...) #1

; Function Attrs: nounwind
declare dso_local i8* @strcpy(i8*, i8*) #2

declare dso_local i32 @printf(i8*, ...) #1

declare dso_local i32 @getchar() #1


!llvm.module.flags = !{!0}
!llvm.ident = !{!1}

!0 = !{i32 1, !"wchar_size", i32 4}
!1 = !{!"clang version 10.0.0-4ubuntu1 "}
